; Function Attrs: mustprogress nounwind uwtable
define void @_ZN4date9tzdb_listD2Ev(ptr nocapture noundef nonnull align 8 dereferenceable(8) %this) unnamed_addr #3 align 2 personality ptr @__gxx_personality_v0 {
entry:
  %0 = load atomic i64, ptr %this seq_cst, align 8
  store atomic i64 0, ptr %this seq_cst, align 8
  %cmp.not3 = icmp eq i64 %0, 0
  br i1 %cmp.not3, label %while.end, label %while.body.preheader

while.body.preheader:                             ; preds = %entry
  %1 = inttoptr i64 %0 to ptr
  br label %while.body

while.body:                                       ; preds = %while.body.preheader, %_ZN4date4tzdbD2Ev.exit
  %ptr.04 = phi ptr [ %2, %_ZN4date4tzdbD2Ev.exit ], [ %1, %while.body.preheader ]
  %next4 = getelementptr inbounds i8, ptr %ptr.04, i64 80
  %2 = load ptr, ptr %next4, align 8
  %leap_seconds.i = getelementptr inbounds i8, ptr %ptr.04, i64 56
  %3 = load ptr, ptr %leap_seconds.i, align 8
  %tobool.not.i.i.i.i = icmp eq ptr %3, null
  br i1 %tobool.not.i.i.i.i, label %_ZN4date4tzdbD2Ev.exit, label %if.then.i.i.i.i

if.then.i.i.i.i:                                  ; preds = %while.body
  tail call void @_ZdlPv(ptr noundef nonnull %3) #23
  br label %_ZN4date4tzdbD2Ev.exit

_ZN4date4tzdbD2Ev.exit:                           ; preds = %while.body, %if.then.i.i.i.i
  %zones.i = getelementptr inbounds i8, ptr %ptr.04, i64 32
  tail call void @_ZNSt6vectorIN4date9time_zoneESaIS1_EED2Ev(ptr noundef nonnull align 8 dereferenceable(24) %zones.i) #24
  tail call void @_ZNSt7__cxx1112basic_stringIcSt11char_traitsIcESaIcEED1Ev(ptr noundef nonnull align 8 dereferenceable(32) %ptr.04) #24
  tail call void @_ZdlPv(ptr noundef nonnull %ptr.04) #23
  %cmp.not = icmp eq ptr %2, null
  br i1 %cmp.not, label %while.end, label %while.body, !llvm.loop !4

while.end:                                        ; preds = %_ZN4date4tzdbD2Ev.exit, %entry
  ret void
}